target datalayout = "e-m:e-p270:32:32-p271:32:32-p272:64:64-i64:64-i128:128-f80:128-n8:16:32:64-S128"
target triple = "x86_64-pc-linux-gnu"

%struct._lv_scale_t = type <{ %struct._lv_obj_t, %struct.lv_ll_t, ptr, i32, i32, i32, i64, i32, i32, i32, i32, i32 }>
%struct._lv_obj_t = type { ptr, ptr, ptr, ptr, ptr, %struct.lv_area_t, i32, i16, i16 }
%struct.lv_area_t = type { i32, i32, i32, i32 }
%struct.lv_ll_t = type { i32, ptr, ptr }
%union.lv_style_value_t = type { ptr }
%struct.lv_point_t = type { i32, i32 }
%struct.lv_draw_dsc_base_t = type { ptr, i32, i32, i32, ptr, i64, ptr }
%struct.lv_color_t = type { i8, i8, i8 }
%struct.lv_draw_label_dsc_t = type { %struct.lv_draw_dsc_base_t, ptr, ptr, i32, i32, %struct.lv_color_t, %struct.lv_color_t, %struct.lv_color_t, i32, i32, i32, i32, i8, i32, i32, i32, i8, ptr }

; Function Attrs: inlinehint nounwind uwtable
define internal i32 @lv_obj_get_style_pad_right(ptr noundef %0, i32 noundef %1) #3 {
  %3 = alloca ptr, align 8
  %4 = alloca i32, align 4
  %5 = alloca %union.lv_style_value_t, align 8
  store ptr %0, ptr %3, align 8, !tbaa !3
  store i32 %1, ptr %4, align 4, !tbaa !25
  call void @llvm.lifetime.start.p0(i64 8, ptr %5) #7
  %6 = load ptr, ptr %3, align 8, !tbaa !3
  %7 = load i32, ptr %4, align 4, !tbaa !25
  %8 = call ptr @lv_obj_get_style_prop(ptr noundef %6, i32 noundef %7, i8 noundef zeroext 19)
  %9 = getelementptr inbounds nuw %union.lv_style_value_t, ptr %5, i32 0, i32 0
  store ptr %8, ptr %9, align 8
  %10 = load i32, ptr %5, align 8, !tbaa !35
  call void @llvm.lifetime.end.p0(i64 8, ptr %5) #7
  ret i32 %10
}

; Function Attrs: inlinehint nounwind uwtable
define internal i32 @lv_obj_get_style_pad_left(ptr noundef %0, i32 noundef %1) #3 {
  %3 = alloca ptr, align 8
  %4 = alloca i32, align 4
  %5 = alloca %union.lv_style_value_t, align 8
  store ptr %0, ptr %3, align 8, !tbaa !3
  store i32 %1, ptr %4, align 4, !tbaa !25
  call void @llvm.lifetime.start.p0(i64 8, ptr %5) #7
  %6 = load ptr, ptr %3, align 8, !tbaa !3
  %7 = load i32, ptr %4, align 4, !tbaa !25
  %8 = call ptr @lv_obj_get_style_prop(ptr noundef %6, i32 noundef %7, i8 noundef zeroext 18)
  %9 = getelementptr inbounds nuw %union.lv_style_value_t, ptr %5, i32 0, i32 0
  store ptr %8, ptr %9, align 8
  %10 = load i32, ptr %5, align 8, !tbaa !35
  call void @llvm.lifetime.end.p0(i64 8, ptr %5) #7
  ret i32 %10
}

; Function Attrs: inlinehint nounwind uwtable
define internal i32 @lv_obj_get_style_pad_top(ptr noundef %0, i32 noundef %1) #3 {
  %3 = alloca ptr, align 8
  %4 = alloca i32, align 4
  %5 = alloca %union.lv_style_value_t, align 8
  store ptr %0, ptr %3, align 8, !tbaa !3
  store i32 %1, ptr %4, align 4, !tbaa !25
  call void @llvm.lifetime.start.p0(i64 8, ptr %5) #7
  %6 = load ptr, ptr %3, align 8, !tbaa !3
  %7 = load i32, ptr %4, align 4, !tbaa !25
  %8 = call ptr @lv_obj_get_style_prop(ptr noundef %6, i32 noundef %7, i8 noundef zeroext 16)
  %9 = getelementptr inbounds nuw %union.lv_style_value_t, ptr %5, i32 0, i32 0
  store ptr %8, ptr %9, align 8
  %10 = load i32, ptr %5, align 8, !tbaa !35
  call void @llvm.lifetime.end.p0(i64 8, ptr %5) #7
  ret i32 %10
}

; Function Attrs: inlinehint nounwind uwtable
define internal i32 @lv_obj_get_style_pad_bottom(ptr noundef %0, i32 noundef %1) #3 {
  %3 = alloca ptr, align 8
  %4 = alloca i32, align 4
  %5 = alloca %union.lv_style_value_t, align 8
  store ptr %0, ptr %3, align 8, !tbaa !3
  store i32 %1, ptr %4, align 4, !tbaa !25
  call void @llvm.lifetime.start.p0(i64 8, ptr %5) #7
  %6 = load ptr, ptr %3, align 8, !tbaa !3
  %7 = load i32, ptr %4, align 4, !tbaa !25
  %8 = call ptr @lv_obj_get_style_prop(ptr noundef %6, i32 noundef %7, i8 noundef zeroext 17)
  %9 = getelementptr inbounds nuw %union.lv_style_value_t, ptr %5, i32 0, i32 0
  store ptr %8, ptr %9, align 8
  %10 = load i32, ptr %5, align 8, !tbaa !35
  call void @llvm.lifetime.end.p0(i64 8, ptr %5) #7
  ret i32 %10
}

; Function Attrs: nounwind uwtable
define internal void @scale_get_label_coords(ptr noundef %0, ptr noundef %1, ptr noundef %2, ptr noundef %3) #0 {
  %5 = alloca ptr, align 8
  %6 = alloca ptr, align 8
  %7 = alloca ptr, align 8
  %8 = alloca ptr, align 8
  %9 = alloca ptr, align 8
  %10 = alloca %struct.lv_point_t, align 4
  store ptr %0, ptr %5, align 8, !tbaa !3
  store ptr %1, ptr %6, align 8, !tbaa !3
  store ptr %2, ptr %7, align 8, !tbaa !3
  store ptr %3, ptr %8, align 8, !tbaa !3
  call void @llvm.lifetime.start.p0(i64 8, ptr %9) #7
  %11 = load ptr, ptr %5, align 8, !tbaa !3
  store ptr %11, ptr %9, align 8, !tbaa !3
  call void @llvm.lifetime.start.p0(i64 8, ptr %10) #7
  %12 = load ptr, ptr %6, align 8, !tbaa !3
  %13 = getelementptr inbounds nuw %struct.lv_draw_label_dsc_t, ptr %12, i32 0, i32 1
  %14 = load ptr, ptr %13, align 8, !tbaa !97
  %15 = load ptr, ptr %6, align 8, !tbaa !3
  %16 = getelementptr inbounds nuw %struct.lv_draw_label_dsc_t, ptr %15, i32 0, i32 2
  %17 = load ptr, ptr %16, align 8, !tbaa !96
  %18 = load ptr, ptr %6, align 8, !tbaa !3
  %19 = getelementptr inbounds nuw %struct.lv_draw_label_dsc_t, ptr %18, i32 0, i32 9
  %20 = load i32, ptr %19, align 8, !tbaa !95
  %21 = load ptr, ptr %6, align 8, !tbaa !3
  %22 = getelementptr inbounds nuw %struct.lv_draw_label_dsc_t, ptr %21, i32 0, i32 8
  %23 = load i32, ptr %22, align 4, !tbaa !104
  call void @lv_text_get_size(ptr noundef %10, ptr noundef %14, ptr noundef %17, i32 noundef %20, i32 noundef %23, i32 noundef 536870911, i32 noundef 0)
  %24 = load ptr, ptr %9, align 8, !tbaa !3
  %25 = getelementptr inbounds nuw %struct._lv_scale_t, ptr %24, i32 0, i32 3
  %26 = load i32, ptr %25, align 8, !tbaa !7
  %27 = icmp eq i32 1, %26
  br i1 %27, label %33, label %28

28:                                               ; preds = %4
  %29 = load ptr, ptr %9, align 8, !tbaa !3
  %30 = getelementptr inbounds nuw %struct._lv_scale_t, ptr %29, i32 0, i32 3
  %31 = load i32, ptr %30, align 8, !tbaa !7
  %32 = icmp eq i32 0, %31
  br i1 %32, label %33, label %91

33:                                               ; preds = %28, %4
  %34 = load ptr, ptr %7, align 8, !tbaa !3
  %35 = getelementptr inbounds nuw %struct.lv_point_t, ptr %34, i32 0, i32 0
  %36 = load i32, ptr %35, align 4, !tbaa !63
  %37 = getelementptr inbounds nuw %struct.lv_point_t, ptr %10, i32 0, i32 0
  %38 = load i32, ptr %37, align 4, !tbaa !63
  %39 = udiv i32 %38, 2
  %40 = sub i32 %36, %39
  %41 = load ptr, ptr %8, align 8, !tbaa !3
  %42 = getelementptr inbounds nuw %struct.lv_area_t, ptr %41, i32 0, i32 0
  store i32 %40, ptr %42, align 4, !tbaa !89
  %43 = load ptr, ptr %7, align 8, !tbaa !3
  %44 = getelementptr inbounds nuw %struct.lv_point_t, ptr %43, i32 0, i32 0
  %45 = load i32, ptr %44, align 4, !tbaa !63
  %46 = getelementptr inbounds nuw %struct.lv_point_t, ptr %10, i32 0, i32 0
  %47 = load i32, ptr %46, align 4, !tbaa !63
  %48 = udiv i32 %47, 2
  %49 = add i32 %45, %48
  %50 = load ptr, ptr %8, align 8, !tbaa !3
  %51 = getelementptr inbounds nuw %struct.lv_area_t, ptr %50, i32 0, i32 2
  store i32 %49, ptr %51, align 4, !tbaa !105
  %52 = load ptr, ptr %9, align 8, !tbaa !3
  %53 = getelementptr inbounds nuw %struct._lv_scale_t, ptr %52, i32 0, i32 3
  %54 = load i32, ptr %53, align 8, !tbaa !7
  %55 = icmp eq i32 1, %54
  br i1 %55, label %56, label %73

56:                                               ; preds = %33
  %57 = load ptr, ptr %7, align 8, !tbaa !3
  %58 = getelementptr inbounds nuw %struct.lv_point_t, ptr %57, i32 0, i32 1
  %59 = load i32, ptr %58, align 4, !tbaa !64
  %60 = load ptr, ptr %5, align 8, !tbaa !3
  %61 = call i32 @lv_obj_get_style_pad_bottom(ptr noundef %60, i32 noundef 131072)
  %62 = add nsw i32 %59, %61
  %63 = load ptr, ptr %8, align 8, !tbaa !3
  %64 = getelementptr inbounds nuw %struct.lv_area_t, ptr %63, i32 0, i32 1
  store i32 %62, ptr %64, align 4, !tbaa !90
  %65 = load ptr, ptr %8, align 8, !tbaa !3
  %66 = getelementptr inbounds nuw %struct.lv_area_t, ptr %65, i32 0, i32 1
  %67 = load i32, ptr %66, align 4, !tbaa !90
  %68 = getelementptr inbounds nuw %struct.lv_point_t, ptr %10, i32 0, i32 1
  %69 = load i32, ptr %68, align 4, !tbaa !64
  %70 = add nsw i32 %67, %69
  %71 = load ptr, ptr %8, align 8, !tbaa !3
  %72 = getelementptr inbounds nuw %struct.lv_area_t, ptr %71, i32 0, i32 3
  store i32 %70, ptr %72, align 4, !tbaa !106
  br label %90

73:                                               ; preds = %33
  %74 = load ptr, ptr %7, align 8, !tbaa !3
  %75 = getelementptr inbounds nuw %struct.lv_point_t, ptr %74, i32 0, i32 1
  %76 = load i32, ptr %75, align 4, !tbaa !64
  %77 = load ptr, ptr %5, align 8, !tbaa !3
  %78 = call i32 @lv_obj_get_style_pad_top(ptr noundef %77, i32 noundef 131072)
  %79 = sub nsw i32 %76, %78
  %80 = load ptr, ptr %8, align 8, !tbaa !3
  %81 = getelementptr inbounds nuw %struct.lv_area_t, ptr %80, i32 0, i32 3
  store i32 %79, ptr %81, align 4, !tbaa !106
  %82 = load ptr, ptr %8, align 8, !tbaa !3
  %83 = getelementptr inbounds nuw %struct.lv_area_t, ptr %82, i32 0, i32 3
  %84 = load i32, ptr %83, align 4, !tbaa !106
  %85 = getelementptr inbounds nuw %struct.lv_point_t, ptr %10, i32 0, i32 1
  %86 = load i32, ptr %85, align 4, !tbaa !64
  %87 = sub nsw i32 %84, %86
  %88 = load ptr, ptr %8, align 8, !tbaa !3
  %89 = getelementptr inbounds nuw %struct.lv_area_t, ptr %88, i32 0, i32 1
  store i32 %87, ptr %89, align 4, !tbaa !90
  br label %90

90:                                               ; preds = %73, %56
  br label %213

91:                                               ; preds = %28
  %92 = load ptr, ptr %9, align 8, !tbaa !3
  %93 = getelementptr inbounds nuw %struct._lv_scale_t, ptr %92, i32 0, i32 3
  %94 = load i32, ptr %93, align 8, !tbaa !7
  %95 = icmp eq i32 2, %94
  br i1 %95, label %101, label %96

96:                                               ; preds = %91
  %97 = load ptr, ptr %9, align 8, !tbaa !3
  %98 = getelementptr inbounds nuw %struct._lv_scale_t, ptr %97, i32 0, i32 3
  %99 = load i32, ptr %98, align 8, !tbaa !7
  %100 = icmp eq i32 4, %99
  br i1 %100, label %101, label %165

101:                                              ; preds = %96, %91
  %102 = load ptr, ptr %7, align 8, !tbaa !3
  %103 = getelementptr inbounds nuw %struct.lv_point_t, ptr %102, i32 0, i32 1
  %104 = load i32, ptr %103, align 4, !tbaa !64
  %105 = getelementptr inbounds nuw %struct.lv_point_t, ptr %10, i32 0, i32 1
  %106 = load i32, ptr %105, align 4, !tbaa !64
  %107 = udiv i32 %106, 2
  %108 = sub i32 %104, %107
  %109 = load ptr, ptr %8, align 8, !tbaa !3
  %110 = getelementptr inbounds nuw %struct.lv_area_t, ptr %109, i32 0, i32 1
  store i32 %108, ptr %110, align 4, !tbaa !90
  %111 = load ptr, ptr %7, align 8, !tbaa !3
  %112 = getelementptr inbounds nuw %struct.lv_point_t, ptr %111, i32 0, i32 1
  %113 = load i32, ptr %112, align 4, !tbaa !64
  %114 = getelementptr inbounds nuw %struct.lv_point_t, ptr %10, i32 0, i32 1
  %115 = load i32, ptr %114, align 4, !tbaa !64
  %116 = udiv i32 %115, 2
  %117 = add i32 %113, %116
  %118 = load ptr, ptr %8, align 8, !tbaa !3
  %119 = getelementptr inbounds nuw %struct.lv_area_t, ptr %118, i32 0, i32 3
  store i32 %117, ptr %119, align 4, !tbaa !106
  %120 = load ptr, ptr %9, align 8, !tbaa !3
  %121 = getelementptr inbounds nuw %struct._lv_scale_t, ptr %120, i32 0, i32 3
  %122 = load i32, ptr %121, align 8, !tbaa !7
  %123 = icmp eq i32 2, %122
  br i1 %123, label %124, label %144

124:                                              ; preds = %101
  %125 = load ptr, ptr %7, align 8, !tbaa !3
  %126 = getelementptr inbounds nuw %struct.lv_point_t, ptr %125, i32 0, i32 0
  %127 = load i32, ptr %126, align 4, !tbaa !63
  %128 = getelementptr inbounds nuw %struct.lv_point_t, ptr %10, i32 0, i32 0
  %129 = load i32, ptr %128, align 4, !tbaa !63
  %130 = sub nsw i32 %127, %129
  %131 = load ptr, ptr %5, align 8, !tbaa !3
  %132 = call i32 @lv_obj_get_style_pad_left(ptr noundef %131, i32 noundef 131072)
  %133 = sub nsw i32 %130, %132
  %134 = load ptr, ptr %8, align 8, !tbaa !3
  %135 = getelementptr inbounds nuw %struct.lv_area_t, ptr %134, i32 0, i32 0
  store i32 %133, ptr %135, align 4, !tbaa !89
  %136 = load ptr, ptr %7, align 8, !tbaa !3
  %137 = getelementptr inbounds nuw %struct.lv_point_t, ptr %136, i32 0, i32 0
  %138 = load i32, ptr %137, align 4, !tbaa !63
  %139 = load ptr, ptr %5, align 8, !tbaa !3
  %140 = call i32 @lv_obj_get_style_pad_left(ptr noundef %139, i32 noundef 131072)
  %141 = sub nsw i32 %138, %140
  %142 = load ptr, ptr %8, align 8, !tbaa !3
  %143 = getelementptr inbounds nuw %struct.lv_area_t, ptr %142, i32 0, i32 2
  store i32 %141, ptr %143, align 4, !tbaa !105
  br label %164

144:                                              ; preds = %101
  %145 = load ptr, ptr %7, align 8, !tbaa !3
  %146 = getelementptr inbounds nuw %struct.lv_point_t, ptr %145, i32 0, i32 0
  %147 = load i32, ptr %146, align 4, !tbaa !63
  %148 = load ptr, ptr %5, align 8, !tbaa !3
  %149 = call i32 @lv_obj_get_style_pad_right(ptr noundef %148, i32 noundef 131072)
  %150 = add nsw i32 %147, %149
  %151 = load ptr, ptr %8, align 8, !tbaa !3
  %152 = getelementptr inbounds nuw %struct.lv_area_t, ptr %151, i32 0, i32 0
  store i32 %150, ptr %152, align 4, !tbaa !89
  %153 = load ptr, ptr %7, align 8, !tbaa !3
  %154 = getelementptr inbounds nuw %struct.lv_point_t, ptr %153, i32 0, i32 0
  %155 = load i32, ptr %154, align 4, !tbaa !63
  %156 = getelementptr inbounds nuw %struct.lv_point_t, ptr %10, i32 0, i32 0
  %157 = load i32, ptr %156, align 4, !tbaa !63
  %158 = add nsw i32 %155, %157
  %159 = load ptr, ptr %5, align 8, !tbaa !3
  %160 = call i32 @lv_obj_get_style_pad_right(ptr noundef %159, i32 noundef 131072)
  %161 = add nsw i32 %158, %160
  %162 = load ptr, ptr %8, align 8, !tbaa !3
  %163 = getelementptr inbounds nuw %struct.lv_area_t, ptr %162, i32 0, i32 2
  store i32 %161, ptr %163, align 4, !tbaa !105
  br label %164

164:                                              ; preds = %144, %124
  br label %212

165:                                              ; preds = %96
  %166 = load ptr, ptr %9, align 8, !tbaa !3
  %167 = getelementptr inbounds nuw %struct._lv_scale_t, ptr %166, i32 0, i32 3
  %168 = load i32, ptr %167, align 8, !tbaa !7
  %169 = icmp eq i32 16, %168
  br i1 %169, label %175, label %170

170:                                              ; preds = %165
  %171 = load ptr, ptr %9, align 8, !tbaa !3
  %172 = getelementptr inbounds nuw %struct._lv_scale_t, ptr %171, i32 0, i32 3
  %173 = load i32, ptr %172, align 8, !tbaa !7
  %174 = icmp eq i32 8, %173
  br i1 %174, label %175, label %210

175:                                              ; preds = %170, %165
  %176 = load ptr, ptr %7, align 8, !tbaa !3
  %177 = getelementptr inbounds nuw %struct.lv_point_t, ptr %176, i32 0, i32 0
  %178 = load i32, ptr %177, align 4, !tbaa !63
  %179 = getelementptr inbounds nuw %struct.lv_point_t, ptr %10, i32 0, i32 0
  %180 = load i32, ptr %179, align 4, !tbaa !63
  %181 = udiv i32 %180, 2
  %182 = sub i32 %178, %181
  %183 = load ptr, ptr %8, align 8, !tbaa !3
  %184 = getelementptr inbounds nuw %struct.lv_area_t, ptr %183, i32 0, i32 0
  store i32 %182, ptr %184, align 4, !tbaa !89
  %185 = load ptr, ptr %7, align 8, !tbaa !3
  %186 = getelementptr inbounds nuw %struct.lv_point_t, ptr %185, i32 0, i32 1
  %187 = load i32, ptr %186, align 4, !tbaa !64
  %188 = getelementptr inbounds nuw %struct.lv_point_t, ptr %10, i32 0, i32 1
  %189 = load i32, ptr %188, align 4, !tbaa !64
  %190 = udiv i32 %189, 2
  %191 = sub i32 %187, %190
  %192 = load ptr, ptr %8, align 8, !tbaa !3
  %193 = getelementptr inbounds nuw %struct.lv_area_t, ptr %192, i32 0, i32 1
  store i32 %191, ptr %193, align 4, !tbaa !90
  %194 = load ptr, ptr %8, align 8, !tbaa !3
  %195 = getelementptr inbounds nuw %struct.lv_area_t, ptr %194, i32 0, i32 0
  %196 = load i32, ptr %195, align 4, !tbaa !89
  %197 = getelementptr inbounds nuw %struct.lv_point_t, ptr %10, i32 0, i32 0
  %198 = load i32, ptr %197, align 4, !tbaa !63
  %199 = add nsw i32 %196, %198
  %200 = load ptr, ptr %8, align 8, !tbaa !3
  %201 = getelementptr inbounds nuw %struct.lv_area_t, ptr %200, i32 0, i32 2
  store i32 %199, ptr %201, align 4, !tbaa !105
  %202 = load ptr, ptr %8, align 8, !tbaa !3
  %203 = getelementptr inbounds nuw %struct.lv_area_t, ptr %202, i32 0, i32 1
  %204 = load i32, ptr %203, align 4, !tbaa !90
  %205 = getelementptr inbounds nuw %struct.lv_point_t, ptr %10, i32 0, i32 1
  %206 = load i32, ptr %205, align 4, !tbaa !64
  %207 = add nsw i32 %204, %206
  %208 = load ptr, ptr %8, align 8, !tbaa !3
  %209 = getelementptr inbounds nuw %struct.lv_area_t, ptr %208, i32 0, i32 3
  store i32 %207, ptr %209, align 4, !tbaa !106
  br label %211

210:                                              ; preds = %170
  br label %211

211:                                              ; preds = %210, %175
  br label %212

212:                                              ; preds = %211, %164
  br label %213

213:                                              ; preds = %212, %90
  call void @llvm.lifetime.end.p0(i64 8, ptr %10) #7
  call void @llvm.lifetime.end.p0(i64 8, ptr %9) #7
  ret void
}