; Function Attrs: nounwind uwtable
define internal fastcc void @scale_get_label_coords(ptr noundef %0, ptr nocapture noundef nonnull readonly %1, ptr nocapture noundef nonnull readonly %2, ptr nocapture noundef nonnull writeonly %3) unnamed_addr #0 {
  %5 = alloca %struct.lv_point_t, align 4
  call void @llvm.lifetime.start.p0(i64 8, ptr nonnull %5) #9
  %6 = getelementptr inbounds nuw i8, ptr %1, i64 48
  %7 = load ptr, ptr %6, align 8, !tbaa !85
  %8 = getelementptr inbounds nuw i8, ptr %1, i64 56
  %9 = load ptr, ptr %8, align 8, !tbaa !83
  %10 = getelementptr inbounds nuw i8, ptr %1, i64 88
  %11 = load i32, ptr %10, align 8, !tbaa !82
  %12 = getelementptr inbounds nuw i8, ptr %1, i64 84
  %13 = load i32, ptr %12, align 4, !tbaa !95
  call void @lv_text_get_size(ptr noundef nonnull %5, ptr noundef %7, ptr noundef %9, i32 noundef %11, i32 noundef %13, i32 noundef 536870911, i32 noundef 0) #9
  %14 = getelementptr inbounds nuw i8, ptr %0, i64 96
  %15 = load i32, ptr %14, align 8, !tbaa !3
  switch i32 %15, label %92 [
    i32 1, label %16
    i32 0, label %16
    i32 2, label %43
    i32 4, label %43
    i32 16, label %76
    i32 8, label %76
  ]

16:                                               ; preds = %4, %4
  %17 = load i32, ptr %2, align 4, !tbaa !57
  %18 = load i32, ptr %5, align 4, !tbaa !57
  %19 = lshr i32 %18, 1
  %20 = sub i32 %17, %19
  store i32 %20, ptr %3, align 4, !tbaa !86
  %21 = add i32 %19, %17
  %22 = getelementptr inbounds nuw i8, ptr %3, i64 8
  store i32 %21, ptr %22, align 4, !tbaa !96
  %23 = icmp eq i32 %15, 1
  %24 = getelementptr inbounds nuw i8, ptr %2, i64 4
  %25 = load i32, ptr %24, align 4, !tbaa !58
  %26 = getelementptr inbounds nuw i8, ptr %5, i64 4
  br i1 %23, label %27, label %35

27:                                               ; preds = %16
  %28 = call ptr @lv_obj_get_style_prop(ptr noundef nonnull %0, i32 noundef 131072, i8 noundef zeroext 17) #9
  %29 = ptrtoint ptr %28 to i64
  %.sroa.0.0.extract.trunc.i = trunc i64 %29 to i32
  %30 = add nsw i32 %25, %.sroa.0.0.extract.trunc.i
  %31 = getelementptr inbounds nuw i8, ptr %3, i64 4
  store i32 %30, ptr %31, align 4, !tbaa !87
  %32 = load i32, ptr %26, align 4, !tbaa !58
  %33 = add nsw i32 %30, %32
  %34 = getelementptr inbounds nuw i8, ptr %3, i64 12
  store i32 %33, ptr %34, align 4, !tbaa !97
  br label %92

35:                                               ; preds = %16
  %36 = call ptr @lv_obj_get_style_prop(ptr noundef nonnull %0, i32 noundef 131072, i8 noundef zeroext 16) #9
  %37 = ptrtoint ptr %36 to i64
  %.sroa.0.0.extract.trunc.i51 = trunc i64 %37 to i32
  %38 = sub nsw i32 %25, %.sroa.0.0.extract.trunc.i51
  %39 = getelementptr inbounds nuw i8, ptr %3, i64 12
  store i32 %38, ptr %39, align 4, !tbaa !97
  %40 = load i32, ptr %26, align 4, !tbaa !58
  %41 = sub nsw i32 %38, %40
  %42 = getelementptr inbounds nuw i8, ptr %3, i64 4
  store i32 %41, ptr %42, align 4, !tbaa !87
  br label %92

43:                                               ; preds = %4, %4
  %44 = getelementptr inbounds nuw i8, ptr %2, i64 4
  %45 = load i32, ptr %44, align 4, !tbaa !58
  %46 = getelementptr inbounds nuw i8, ptr %5, i64 4
  %47 = load i32, ptr %46, align 4, !tbaa !58
  %48 = lshr i32 %47, 1
  %49 = sub i32 %45, %48
  %50 = getelementptr inbounds nuw i8, ptr %3, i64 4
  store i32 %49, ptr %50, align 4, !tbaa !87
  %51 = add i32 %48, %45
  %52 = getelementptr inbounds nuw i8, ptr %3, i64 12
  store i32 %51, ptr %52, align 4, !tbaa !97
  %53 = icmp eq i32 %15, 2
  %54 = load i32, ptr %2, align 4, !tbaa !57
  %55 = getelementptr inbounds nuw i8, ptr %3, i64 8
  br i1 %53, label %56, label %66

56:                                               ; preds = %43
  %57 = load i32, ptr %5, align 4, !tbaa !57
  %58 = call ptr @lv_obj_get_style_prop(ptr noundef nonnull %0, i32 noundef 131072, i8 noundef zeroext 18) #9
  %59 = ptrtoint ptr %58 to i64
  %.sroa.0.0.extract.trunc.i52 = trunc i64 %59 to i32
  %60 = add i32 %57, %.sroa.0.0.extract.trunc.i52
  %61 = sub i32 %54, %60
  store i32 %61, ptr %3, align 4, !tbaa !86
  %62 = load i32, ptr %2, align 4, !tbaa !57
  %63 = call ptr @lv_obj_get_style_prop(ptr noundef nonnull %0, i32 noundef 131072, i8 noundef zeroext 18) #9
  %64 = ptrtoint ptr %63 to i64
  %.sroa.0.0.extract.trunc.i53 = trunc i64 %64 to i32
  %65 = sub nsw i32 %62, %.sroa.0.0.extract.trunc.i53
  store i32 %65, ptr %55, align 4, !tbaa !96
  br label %92

66:                                               ; preds = %43
  %67 = call ptr @lv_obj_get_style_prop(ptr noundef nonnull %0, i32 noundef 131072, i8 noundef zeroext 19) #9
  %68 = ptrtoint ptr %67 to i64
  %.sroa.0.0.extract.trunc.i54 = trunc i64 %68 to i32
  %69 = add nsw i32 %54, %.sroa.0.0.extract.trunc.i54
  store i32 %69, ptr %3, align 4, !tbaa !86
  %70 = load i32, ptr %2, align 4, !tbaa !57
  %71 = load i32, ptr %5, align 4, !tbaa !57
  %72 = add nsw i32 %71, %70
  %73 = call ptr @lv_obj_get_style_prop(ptr noundef nonnull %0, i32 noundef 131072, i8 noundef zeroext 19) #9
  %74 = ptrtoint ptr %73 to i64
  %.sroa.0.0.extract.trunc.i55 = trunc i64 %74 to i32
  %75 = add nsw i32 %72, %.sroa.0.0.extract.trunc.i55
  store i32 %75, ptr %55, align 4, !tbaa !96
  br label %92

76:                                               ; preds = %4, %4
  %77 = load i32, ptr %2, align 4, !tbaa !57
  %78 = load i32, ptr %5, align 4, !tbaa !57
  %79 = lshr i32 %78, 1
  %80 = sub i32 %77, %79
  store i32 %80, ptr %3, align 4, !tbaa !86
  %81 = getelementptr inbounds nuw i8, ptr %2, i64 4
  %82 = load i32, ptr %81, align 4, !tbaa !58
  %83 = getelementptr inbounds nuw i8, ptr %5, i64 4
  %84 = load i32, ptr %83, align 4, !tbaa !58
  %85 = lshr i32 %84, 1
  %86 = sub i32 %82, %85
  %87 = getelementptr inbounds nuw i8, ptr %3, i64 4
  store i32 %86, ptr %87, align 4, !tbaa !87
  %88 = add nsw i32 %80, %78
  %89 = getelementptr inbounds nuw i8, ptr %3, i64 8
  store i32 %88, ptr %89, align 4, !tbaa !96
  %90 = add nsw i32 %86, %84
  %91 = getelementptr inbounds nuw i8, ptr %3, i64 12
  store i32 %90, ptr %91, align 4, !tbaa !97
  br label %92

92:                                               ; preds = %4, %66, %56, %76, %27, %35
  call void @llvm.lifetime.end.p0(i64 8, ptr nonnull %5) #9
  ret void
}